; Function Attrs: mustprogress uwtable
define noundef double @_ZNK8QuantLib30OvernightIndexFutureRateHelper12impliedQuoteEv(ptr nocapture noundef nonnull readonly align 8 dereferenceable(208) %this) unnamed_addr #6 align 2 personality ptr @__gxx_personality_v0 {
entry:
  %future_ = getelementptr inbounds nuw i8, ptr %this, i64 176
  %0 = load ptr, ptr %future_, align 8, !tbaa !55
  %cmp.not.i = icmp eq ptr %0, null
  br i1 %cmp.not.i, label %cond.false.i, label %_ZNK5boost10shared_ptrIN8QuantLib20OvernightIndexFutureEEptEv.exit, !prof !49

cond.false.i:                                     ; preds = %entry
  tail call void @_ZN5boost16assertion_failedEPKcS1_S1_l(ptr noundef nonnull @.str.15, ptr noundef nonnull @__PRETTY_FUNCTION__._ZNK5boost10shared_ptrIN8QuantLib20OvernightIndexFutureEEptEv, ptr noundef nonnull @.str.16, i64 noundef 784)
  %.pre.i = load ptr, ptr %future_, align 8, !tbaa !55
  br label %_ZNK5boost10shared_ptrIN8QuantLib20OvernightIndexFutureEEptEv.exit

_ZNK5boost10shared_ptrIN8QuantLib20OvernightIndexFutureEEptEv.exit: ; preds = %entry, %cond.false.i
  %1 = phi ptr [ %0, %entry ], [ %.pre.i, %cond.false.i ]
  %frozen_.i = getelementptr inbounds nuw i8, ptr %1, i64 9
  %2 = load i8, ptr %frozen_.i, align 1, !tbaa !84, !range !26, !noundef !27
  store i8 0, ptr %frozen_.i, align 1, !tbaa !84
  %calculated_.i = getelementptr inbounds nuw i8, ptr %1, i64 8
  store i8 0, ptr %calculated_.i, align 8, !tbaa !86
  %vtable.i = load ptr, ptr %1, align 8, !tbaa !35
  %vfn.i = getelementptr inbounds i8, ptr %vtable.i, i64 24
  %3 = load ptr, ptr %vfn.i, align 8
  invoke void %3(ptr noundef nonnull align 8 dereferenceable(12) %1)
          to label %_ZN8QuantLib10LazyObject11recalculateEv.exit unwind label %lpad.i

lpad.i:                                           ; preds = %_ZNK5boost10shared_ptrIN8QuantLib20OvernightIndexFutureEEptEv.exit
  %4 = landingpad { ptr, i32 }
          catch ptr null
  %5 = extractvalue { ptr, i32 } %4, 0
  %6 = tail call ptr @__cxa_begin_catch(ptr %5) #25
  store i8 %2, ptr %frozen_.i, align 1, !tbaa !84
  %vtable6.i = load ptr, ptr %1, align 8, !tbaa !35
  %vbase.offset.ptr.i = getelementptr i8, ptr %vtable6.i, i64 -24
  %vbase.offset.i = load i64, ptr %vbase.offset.ptr.i, align 8
  %add.ptr.i = getelementptr inbounds i8, ptr %1, i64 %vbase.offset.i
  invoke void @_ZN8QuantLib10Observable15notifyObserversEv(ptr noundef nonnull align 8 dereferenceable(56) %add.ptr.i)
          to label %invoke.cont8.i unwind label %lpad7.i

invoke.cont8.i:                                   ; preds = %lpad.i
  invoke void @__cxa_rethrow() #27
          to label %unreachable.i unwind label %lpad7.i

lpad7.i:                                          ; preds = %invoke.cont8.i, %lpad.i
  %7 = landingpad { ptr, i32 }
          cleanup
  invoke void @__cxa_end_catch()
          to label %invoke.cont9.i unwind label %terminate.lpad.i

invoke.cont9.i:                                   ; preds = %lpad7.i
  resume { ptr, i32 } %7

terminate.lpad.i:                                 ; preds = %lpad7.i
  %8 = landingpad { ptr, i32 }
          catch ptr null
  %9 = extractvalue { ptr, i32 } %8, 0
  tail call void @__clang_call_terminate(ptr %9) #26
  unreachable

unreachable.i:                                    ; preds = %invoke.cont8.i
  unreachable

_ZN8QuantLib10LazyObject11recalculateEv.exit:     ; preds = %_ZNK5boost10shared_ptrIN8QuantLib20OvernightIndexFutureEEptEv.exit
  store i8 %2, ptr %frozen_.i, align 1, !tbaa !84
  %vtable13.i = load ptr, ptr %1, align 8, !tbaa !35
  %vbase.offset.ptr14.i = getelementptr i8, ptr %vtable13.i, i64 -24
  %vbase.offset15.i = load i64, ptr %vbase.offset.ptr14.i, align 8
  %add.ptr16.i = getelementptr inbounds i8, ptr %1, i64 %vbase.offset15.i
  tail call void @_ZN8QuantLib10Observable15notifyObserversEv(ptr noundef nonnull align 8 dereferenceable(56) %add.ptr16.i)
  %10 = load ptr, ptr %future_, align 8, !tbaa !55
  %cmp.not.i1 = icmp eq ptr %10, null
  br i1 %cmp.not.i1, label %cond.false.i2, label %_ZNK5boost10shared_ptrIN8QuantLib20OvernightIndexFutureEEptEv.exit4, !prof !49

cond.false.i2:                                    ; preds = %_ZN8QuantLib10LazyObject11recalculateEv.exit
  tail call void @_ZN5boost16assertion_failedEPKcS1_S1_l(ptr noundef nonnull @.str.15, ptr noundef nonnull @__PRETTY_FUNCTION__._ZNK5boost10shared_ptrIN8QuantLib20OvernightIndexFutureEEptEv, ptr noundef nonnull @.str.16, i64 noundef 784)
  %.pre.i3 = load ptr, ptr %future_, align 8, !tbaa !55
  br label %_ZNK5boost10shared_ptrIN8QuantLib20OvernightIndexFutureEEptEv.exit4

_ZNK5boost10shared_ptrIN8QuantLib20OvernightIndexFutureEEptEv.exit4: ; preds = %_ZN8QuantLib10LazyObject11recalculateEv.exit, %cond.false.i2
  %11 = phi ptr [ %10, %_ZN8QuantLib10LazyObject11recalculateEv.exit ], [ %.pre.i3, %cond.false.i2 ]
  %call4 = tail call noundef double @_ZNK8QuantLib10Instrument3NPVEv(ptr noundef nonnull align 8 dereferenceable(104) %11)
  ret double %call4
}